target datalayout = "e-m:e-p270:32:32-p271:32:32-p272:64:64-i64:64-i128:128-f80:128-n8:16:32:64-S128"
target triple = "x86_64-pc-linux-gnu"

%struct.lxb_dom_node = type { %struct.lxb_dom_event_target, i64, i64, i64, ptr, ptr, ptr, ptr, ptr, ptr, ptr, i32, i64 }
%struct.lxb_dom_event_target = type { ptr }
%struct.lxb_dom_attr = type { %struct.lxb_dom_node, i64, i64, ptr, ptr, ptr, ptr }
%struct.lexbor_str_t = type { ptr, i64 }

@.str.2 = private unnamed_addr constant [9 x i8] c"encoding\00", align 1
@.str.3 = private unnamed_addr constant [10 x i8] c"text/html\00", align 1
@.str.4 = private unnamed_addr constant [22 x i8] c"application/xhtml+xml\00", align 1

; Function Attrs: nounwind uwtable
define hidden zeroext i1 @lxb_html_tree_html_integration_point(ptr noundef %0) #0 {
  %2 = alloca i1, align 1
  %3 = alloca ptr, align 8
  %4 = alloca ptr, align 8
  store ptr %0, ptr %3, align 8
  %5 = load ptr, ptr %3, align 8
  %6 = getelementptr inbounds %struct.lxb_dom_node, ptr %5, i32 0, i32 3
  %7 = load i64, ptr %6, align 8
  %8 = icmp eq i64 %7, 3
  br i1 %8, label %9, label %56

9:                                                ; preds = %1
  %10 = load ptr, ptr %3, align 8
  %11 = getelementptr inbounds %struct.lxb_dom_node, ptr %10, i32 0, i32 1
  %12 = load i64, ptr %11, align 8
  %13 = icmp eq i64 %12, 16
  br i1 %13, label %14, label %56

14:                                               ; preds = %9
  %15 = load ptr, ptr %3, align 8
  %16 = call ptr @lxb_dom_element_attr_is_exist(ptr noundef %15, ptr noundef @.str.2, i64 noundef 8)
  store ptr %16, ptr %4, align 8
  %17 = load ptr, ptr %4, align 8
  %18 = icmp eq ptr %17, null
  br i1 %18, label %24, label %19

19:                                               ; preds = %14
  %20 = load ptr, ptr %4, align 8
  %21 = getelementptr inbounds %struct.lxb_dom_attr, ptr %20, i32 0, i32 3
  %22 = load ptr, ptr %21, align 8
  %23 = icmp eq ptr %22, null
  br i1 %23, label %24, label %25

24:                                               ; preds = %19, %14
  store i1 false, ptr %2, align 1
  br label %78

25:                                               ; preds = %19
  %26 = load ptr, ptr %4, align 8
  %27 = getelementptr inbounds %struct.lxb_dom_attr, ptr %26, i32 0, i32 3
  %28 = load ptr, ptr %27, align 8
  %29 = getelementptr inbounds %struct.lexbor_str_t, ptr %28, i32 0, i32 1
  %30 = load i64, ptr %29, align 8
  %31 = icmp eq i64 %30, 9
  br i1 %31, label %32, label %40

32:                                               ; preds = %25
  %33 = load ptr, ptr %4, align 8
  %34 = getelementptr inbounds %struct.lxb_dom_attr, ptr %33, i32 0, i32 3
  %35 = load ptr, ptr %34, align 8
  %36 = getelementptr inbounds %struct.lexbor_str_t, ptr %35, i32 0, i32 0
  %37 = load ptr, ptr %36, align 8
  %38 = call zeroext i1 @lexbor_str_data_casecmp(ptr noundef %37, ptr noundef @.str.3)
  br i1 %38, label %39, label %40

39:                                               ; preds = %32
  store i1 true, ptr %2, align 1
  br label %78

40:                                               ; preds = %32, %25
  %41 = load ptr, ptr %4, align 8
  %42 = getelementptr inbounds %struct.lxb_dom_attr, ptr %41, i32 0, i32 3
  %43 = load ptr, ptr %42, align 8
  %44 = getelementptr inbounds %struct.lexbor_str_t, ptr %43, i32 0, i32 1
  %45 = load i64, ptr %44, align 8
  %46 = icmp eq i64 %45, 21
  br i1 %46, label %47, label %55

47:                                               ; preds = %40
  %48 = load ptr, ptr %4, align 8
  %49 = getelementptr inbounds %struct.lxb_dom_attr, ptr %48, i32 0, i32 3
  %50 = load ptr, ptr %49, align 8
  %51 = getelementptr inbounds %struct.lexbor_str_t, ptr %50, i32 0, i32 0
  %52 = load ptr, ptr %51, align 8
  %53 = call zeroext i1 @lexbor_str_data_casecmp(ptr noundef %52, ptr noundef @.str.4)
  br i1 %53, label %54, label %55

54:                                               ; preds = %47
  store i1 true, ptr %2, align 1
  br label %78

55:                                               ; preds = %47, %40
  store i1 false, ptr %2, align 1
  br label %78

56:                                               ; preds = %9, %1
  %57 = load ptr, ptr %3, align 8
  %58 = getelementptr inbounds %struct.lxb_dom_node, ptr %57, i32 0, i32 3
  %59 = load i64, ptr %58, align 8
  %60 = icmp eq i64 %59, 4
  br i1 %60, label %61, label %77

61:                                               ; preds = %56
  %62 = load ptr, ptr %3, align 8
  %63 = getelementptr inbounds %struct.lxb_dom_node, ptr %62, i32 0, i32 1
  %64 = load i64, ptr %63, align 8
  %65 = icmp eq i64 %64, 86
  br i1 %65, label %76, label %66

66:                                               ; preds = %61
  %67 = load ptr, ptr %3, align 8
  %68 = getelementptr inbounds %struct.lxb_dom_node, ptr %67, i32 0, i32 1
  %69 = load i64, ptr %68, align 8
  %70 = icmp eq i64 %69, 46
  br i1 %70, label %76, label %71

71:                                               ; preds = %66
  %72 = load ptr, ptr %3, align 8
  %73 = getelementptr inbounds %struct.lxb_dom_node, ptr %72, i32 0, i32 1
  %74 = load i64, ptr %73, align 8
  %75 = icmp eq i64 %74, 186
  br i1 %75, label %76, label %77

76:                                               ; preds = %71, %66, %61
  store i1 true, ptr %2, align 1
  br label %78

77:                                               ; preds = %71, %56
  store i1 false, ptr %2, align 1
  br label %78

78:                                               ; preds = %77, %76, %55, %54, %39, %24
  %79 = load i1, ptr %2, align 1
  ret i1 %79
}