; Function Attrs: nounwind uwtable
define hidden noundef zeroext i1 @lxb_html_tree_html_integration_point(ptr noundef %0) local_unnamed_addr #0 {
  %2 = getelementptr inbounds i8, ptr %0, i64 24
  %3 = load i64, ptr %2, align 8
  switch i64 %3, label %.thread [
    i64 3, label %4
    i64 4, label %30
  ]

4:                                                ; preds = %1
  %5 = getelementptr inbounds i8, ptr %0, i64 8
  %6 = load i64, ptr %5, align 8
  %7 = icmp eq i64 %6, 16
  br i1 %7, label %8, label %.thread

8:                                                ; preds = %4
  %9 = tail call ptr @lxb_dom_element_attr_is_exist(ptr noundef nonnull %0, ptr noundef nonnull @.str.2, i64 noundef 8) #9
  %10 = icmp eq ptr %9, null
  br i1 %10, label %33, label %11

11:                                               ; preds = %8
  %12 = getelementptr inbounds i8, ptr %9, i64 120
  %13 = load ptr, ptr %12, align 8
  %14 = icmp eq ptr %13, null
  br i1 %14, label %33, label %15

15:                                               ; preds = %11
  %16 = getelementptr inbounds i8, ptr %13, i64 8
  %17 = load i64, ptr %16, align 8
  %18 = icmp eq i64 %17, 9
  br i1 %18, label %19, label %22

19:                                               ; preds = %15
  %20 = load ptr, ptr %13, align 8
  %21 = tail call zeroext i1 @lexbor_str_data_casecmp(ptr noundef %20, ptr noundef nonnull @.str.3) #9
  br i1 %21, label %33, label %._crit_edge

._crit_edge:                                      ; preds = %19
  %.pre = load ptr, ptr %12, align 8
  %.phi.trans.insert = getelementptr inbounds i8, ptr %.pre, i64 8
  %.pre17 = load i64, ptr %.phi.trans.insert, align 8
  br label %22

22:                                               ; preds = %._crit_edge, %15
  %23 = phi i64 [ %.pre17, %._crit_edge ], [ %17, %15 ]
  %24 = phi ptr [ %.pre, %._crit_edge ], [ %13, %15 ]
  %25 = icmp eq i64 %23, 21
  br i1 %25, label %26, label %29

26:                                               ; preds = %22
  %27 = load ptr, ptr %24, align 8
  %28 = tail call zeroext i1 @lexbor_str_data_casecmp(ptr noundef %27, ptr noundef nonnull @.str.4) #9
  br i1 %28, label %33, label %29

29:                                               ; preds = %26, %22
  br label %33

30:                                               ; preds = %1
  %31 = getelementptr inbounds i8, ptr %0, i64 8
  %32 = load i64, ptr %31, align 8
  switch i64 %32, label %.thread [
    i64 86, label %33
    i64 46, label %33
    i64 186, label %33
  ]

.thread:                                          ; preds = %1, %4, %30
  br label %33

33:                                               ; preds = %30, %30, %30, %26, %19, %8, %11, %.thread, %29
  %.0 = phi i1 [ false, %29 ], [ false, %.thread ], [ false, %11 ], [ false, %8 ], [ true, %19 ], [ true, %26 ], [ true, %30 ], [ true, %30 ], [ true, %30 ]
  ret i1 %.0
}